Certificate:
    Data:
        Version: 3 (0x2)
        Serial Number: 16777220130724483445 (0xe8d4a8d1c25d9175)
    Signature Algorithm: sha256WithRSAEncryption
        Issuer: C=US, ST=California, O=Dapl, OU=Operations, CN=dapl.com/emailAddress=operations@dapl.com
        Validity
            Not Before: May 10 18:09:00 2016 GMT
            Not After : May 10 18:09:00 2019 GMT
        Subject: C=US, ST=California, O=Dapl, OU=Operations, CN=dapl.com/emailAddress=operations@dapl.com
        Subject Public Key Info:
            Public Key Algorithm: rsaEncryption
                Public-Key: (2048 bit)
                Modulus:
                    00:a5:bc:f4:22:6d:f3:1a:81:1b:da:13:bc:68:92:
                    5c:8a:71:2d:3f:73:5d:f3:47:6d:86:48:00:d4:5c:
                    7b:fe:db:5c:8a:cf:31:df:b5:33:c1:2b:35:d8:ce:
                    d5:61:8e:c9:4e:5f:b2:b7:f8:21:73:eb:b2:6c:64:
                    ab:09:9e:c3:4f:9d:54:92:75:31:31:f3:dd:ce:8d:
                    92:12:b0:77:69:8b:4b:64:dd:23:64:e9:10:f0:43:
                    03:ee:d0:b1:ae:65:7c:fd:b1:72:e3:f3:66:96:4d:
                    fe:14:18:91:00:3b:48:2e:48:ad:2f:52:a6:d7:61:
                    0f:57:42:48:83:22:85:75:ce:1e:42:fc:18:b6:1f:
                    c9:d5:3c:ee:8e:51:40:b2:65:aa:26:03:50:0a:c2:
                    00:03:49:23:34:ac:22:b3:7e:96:d0:62:a1:27:96:
                    86:32:1c:a7:7f:51:7a:81:4a:4e:4c:2c:3c:3d:ac:
                    a4:37:00:b5:60:0e:fa:3e:10:9b:22:26:8a:63:e6:
                    26:22:a5:14:79:20:52:f9:d1:d3:c0:ef:d6:c1:10:
                    55:32:4a:15:8a:18:c3:55:a8:d2:25:db:b5:99:c5:
                    b8:a7:b4:80:55:0d:2f:79:3a:bc:62:c3:1c:b4:81:
                    17:1c:d9:73:b8:44:3e:79:ce:bf:a9:30:22:72:17:
                    bc:83
                Exponent: 65537 (0x10001)
        X509v3 extensions:
            X509v3 Subject Key Identifier:
                6A:9A:D7:DB:22:22:6F:10:8D:73:EE:E7:F7:E2:71:61:5C:04:DF:14
            X509v3 Authority Key Identifier:
                keyid:6A:9A:D7:DB:22:22:6F:10:8D:73:EE:E7:F7:E2:71:61:5C:04:DF:14

            X509v3 Basic Constraints:
                CA:TRUE
    Signature Algorithm: sha256WithRSAEncryption
         9d:0f:91:4f:21:d9:55:25:bc:95:3c:d9:fe:a5:68:97:43:e1:
         a5:bb:b9:e9:0c:d0:b0:c2:b5:ed:94:c7:d5:65:a8:af:75:52:
         92:c6:20:a5:7c:2f:76:29:09:28:20:0f:36:49:a6:85:f3:74:
         46:69:8b:66:4a:97:2a:4d:ce:35:36:b8:b0:5c:41:ec:f3:fa:
         cd:83:80:09:1e:39:a6:96:40:fb:57:46:4e:0f:77:33:63:ce:
         7f:69:18:10:1b:76:a2:72:25:40:86:58:9a:de:1c:ab:c2:39:
         8a:77:b6:e1:c2:ec:0d:01:22:ac:2b:00:f4:74:c9:e8:bb:24:
         cf:e6:78:cd:95:e2:1f:16:4c:c6:d6:bc:e0:71:71:c5:03:52:
         ed:07:42:6f:37:17:3a:16:87:59:76:1c:3f:ed:55:1c:eb:2a:
         fe:16:8c:11:78:d5:65:7d:aa:32:47:dd:33:61:93:1d:df:81:
         6c:21:2b:30:07:51:c1:4c:a3:ca:79:32:4f:dd:4e:4d:fd:93:
         9f:c6:51:54:00:90:bd:64:f0:36:eb:cf:8e:5a:1d:d5:8d:25:
         6a:26:d4:3a:e4:8d:3b:73:c1:dd:15:20:a2:1f:7f:8a:a2:ec:
         6e:77:4d:89:30:29:b9:06:ee:c7:70:f3:be:27:a0:0f:c5:f3:
         90:ca:c7:4d
-----BEGIN CERTIFICATE-----
MIIDzTCCArWgAwIBAgIJAOjUqNHCXZF1MA0GCSqGSIb3DQEBCwUAMH0xCzAJBgNV
BAYTAlVTMRMwEQYDVQQIDApDYWxpZm9ybmlhMQ0wCwYDVQQKDAREYXBsMRMwEQYD
VQQLDApPcGVyYXRpb25zMREwDwYDVQQDDAhkYXBsLmNvbTEiMCAGCSqGSIb3DQEJ
ARYTb3BlcmF0aW9uc0BkYXBsLmNvbTAeFw0xNjA1MTAxODA5MDBaFw0xOTA1MTAx
ODA5MDBaMH0xCzAJBgNVBAYTAlVTMRMwEQYDVQQIDApDYWxpZm9ybmlhMQ0wCwYD
VQQKDAREYXBsMRMwEQYDVQQLDApPcGVyYXRpb25zMREwDwYDVQQDDAhkYXBsLmNv
bTEiMCAGCSqGSIb3DQEJARYTb3BlcmF0aW9uc0BkYXBsLmNvbTCCASIwDQYJKoZI
hvcNAQEBBQADggEPADCCAQoCggEBAKW89CJt8xqBG9oTvGiSXIpxLT9zXfNHbYZI
ANRce/7bXIrPMd+1M8ErNdjO1WGOyU5fsrf4IXPrsmxkqwmew0+dVJJ1MTHz3c6N
khKwd2mLS2TdI2TpEPBDA+7Qsa5lfP2xcuPzZpZN/hQYkQA7SC5IrS9SptdhD1dC
SIMihXXOHkL8GLYfydU87o5RQLJlqiYDUArCAANJIzSsIrN+ltBioSeWhjIcp39R
eoFKTkwsPD2spDcAtWAO+j4QmyImimPmJiKlFHkgUvnR08Dv1sEQVTJKFYoYw1Wo
0iXbtZnFuKe0gFUNL3k6vGLDHLSBFxzZc7hEPnnOv6kwInIXvIMCAwEAAaNQME4w
HQYDVR0OBBYEFGqa19siIm8QjXPu5/ficWFcBN8UMB8GA1UdIwQYMBaAFGqa19si
Im8QjXPu5/ficWFcBN8UMAwGA1UdEwQFMAMBAf8wDQYJKoZIhvcNAQELBQADggEB
AJ0PkU8h2VUlvJU82f6laJdD4aW7uekM0LDCte2Ux9VlqK91UpLGIKV8L3YpCSgg
DzZJpoXzdEZpi2ZKlypNzjU2uLBcQezz+s2DgAkeOaaWQPtXRk4PdzNjzn9pGBAb
dqJyJUCGWJreHKvCOYp3tuHC7A0BIqwrAPR0yei7JM/meM2V4h8WTMbWvOBxccUD
Uu0HQm83FzoWh1l2HD/tVRzrKv4WjBF41WV9qjJH3TNhkx3fgWwhKzAHUcFMo8p5
Mk/dTk39k5/GUVQAkL1k8Dbrz45aHdWNJWom1DrkjTtzwd0VIKIff4qi7G53TYkw
KbkG7sdw874noA/F85DKx00=
-----END CERTIFICATE-----
