Certificate:
    Data:
        Version: 3 (0x2)
        Serial Number: 16777220130724483447 (0xe8d4a8d1c25d9177)
    Signature Algorithm: sha256WithRSAEncryption
        Issuer: C=US, ST=California, O=Dapl, OU=Operations, CN=dapl.com/emailAddress=operations@dapl.com
        Validity
            Not Before: May 10 18:13:12 2016 GMT
            Not After : May 10 18:13:12 2017 GMT
        Subject: C=US, ST=California, L=San Francisco, O=Dapl, OU=Operations, CN=ldap02.dapl.com/emailAddress=operations@dapl.com
        Subject Public Key Info:
            Public Key Algorithm: rsaEncryption
                Public-Key: (2048 bit)
                Modulus:
                    00:a2:37:b6:f1:e5:83:5c:36:7e:6c:f5:ce:81:00:
                    08:9c:4b:96:45:53:d3:55:28:a4:8a:05:27:3c:43:
                    02:b2:d2:3f:4c:2b:c2:69:9a:5a:f8:c7:c7:0b:18:
                    b6:bc:58:5a:2c:d2:32:44:bc:54:99:29:51:27:0c:
                    ca:52:67:95:c1:e9:27:7b:30:f1:2a:c7:7d:ad:fb:
                    a0:28:4c:61:a0:07:7c:4d:a1:2f:d2:bb:3c:6c:47:
                    b3:1d:8b:0a:a0:f9:22:14:10:89:ef:f2:80:c7:e2:
                    03:0d:ac:3f:2e:9d:f4:5b:6b:e7:4d:2f:5f:46:b7:
                    9d:0a:b1:9a:17:0d:cf:1b:4d:85:aa:75:d7:9b:18:
                    76:c0:7f:4e:d5:a8:2d:c7:2f:54:c5:69:d3:93:75:
                    cd:c9:5c:e7:fc:68:35:85:68:3a:6e:36:1e:03:72:
                    6f:d2:5f:f2:bc:a3:d5:ec:c0:57:20:a0:b9:38:bb:
                    13:8b:cd:95:24:e3:24:d2:1e:f8:f9:fc:62:51:c6:
                    68:73:3f:86:aa:db:e7:1b:b3:c8:b5:93:53:aa:22:
                    e5:d0:a0:65:22:f4:1d:61:cb:5e:5e:23:08:bd:43:
                    5c:c3:1f:22:36:e3:2a:12:3d:6a:a7:e8:cc:5d:35:
                    96:b8:8f:e3:0c:d9:12:87:07:ab:c0:ec:15:f1:a6:
                    f9:d9
                Exponent: 65537 (0x10001)
        X509v3 extensions:
            X509v3 Basic Constraints:
                CA:FALSE
            Netscape Comment:
                OpenSSL Generated Certificate
            X509v3 Subject Key Identifier:
                6D:E5:B7:33:93:F8:68:37:8C:5B:6D:EB:E1:7D:C8:9B:96:C5:1C:4C
            X509v3 Authority Key Identifier:
                keyid:6A:9A:D7:DB:22:22:6F:10:8D:73:EE:E7:F7:E2:71:61:5C:04:DF:14

    Signature Algorithm: sha256WithRSAEncryption
         87:11:43:7b:df:2a:cc:fe:3d:76:0d:4f:02:fd:15:24:3e:09:
         e4:4c:55:b2:e6:df:48:26:9e:f4:44:dd:26:a4:91:25:76:7c:
         0e:2f:d8:f9:b0:3a:d1:6a:97:01:08:0b:70:79:17:13:4e:ad:
         e9:52:91:2b:dc:2e:0e:51:be:91:ff:5e:53:fc:ee:46:64:2f:
         24:30:02:3d:b1:ca:20:d0:8c:7d:a5:9b:1a:02:af:b9:71:0d:
         e8:71:21:cc:a1:e0:32:c7:2a:aa:e6:7a:67:1e:a0:a7:23:fd:
         7b:ce:f0:3b:3f:ad:12:54:27:88:ff:42:5b:96:4b:af:62:4a:
         78:d6:1c:1d:7f:a5:ee:78:07:a1:e6:54:67:23:8a:c6:2e:a0:
         fb:6c:f7:b3:c1:ba:1f:9f:0f:f7:64:33:ea:d2:4d:63:76:74:
         de:d2:2e:7b:a4:fb:2b:e7:6e:c1:f6:ab:ba:62:e8:30:bb:b0:
         93:77:6e:fd:65:af:85:df:73:87:ee:f4:45:a9:fc:5d:c8:ea:
         26:08:18:4e:50:ac:c4:e8:ec:95:b1:c7:3a:e6:79:08:1b:66:
         71:4b:83:ae:18:bd:c7:11:a1:79:3e:04:d6:87:10:44:59:cf:
         8b:4c:60:78:80:45:96:9f:63:12:c2:6d:c9:0f:fe:7b:36:ab:
         e0:a5:1b:d3
-----BEGIN CERTIFICATE-----
MIIEGDCCAwCgAwIBAgIJAOjUqNHCXZF3MA0GCSqGSIb3DQEBCwUAMH0xCzAJBgNV
BAYTAlVTMRMwEQYDVQQIDApDYWxpZm9ybmlhMQ0wCwYDVQQKDAREYXBsMRMwEQYD
VQQLDApPcGVyYXRpb25zMREwDwYDVQQDDAhkYXBsLmNvbTEiMCAGCSqGSIb3DQEJ
ARYTb3BlcmF0aW9uc0BkYXBsLmNvbTAeFw0xNjA1MTAxODEzMTJaFw0xNzA1MTAx
ODEzMTJaMIGcMQswCQYDVQQGEwJVUzETMBEGA1UECAwKQ2FsaWZvcm5pYTEWMBQG
A1UEBwwNU2FuIEZyYW5jaXNjbzENMAsGA1UECgwERGFwbDETMBEGA1UECwwKT3Bl
cmF0aW9uczEYMBYGA1UEAwwPbGRhcDAyLmRhcGwuY29tMSIwIAYJKoZIhvcNAQkB
FhNvcGVyYXRpb25zQGRhcGwuY29tMIIBIjANBgkqhkiG9w0BAQEFAAOCAQ8AMIIB
CgKCAQEAoje28eWDXDZ+bPXOgQAInEuWRVPTVSikigUnPEMCstI/TCvCaZpa+MfH
Cxi2vFhaLNIyRLxUmSlRJwzKUmeVweknezDxKsd9rfugKExhoAd8TaEv0rs8bEez
HYsKoPkiFBCJ7/KAx+IDDaw/Lp30W2vnTS9fRredCrGaFw3PG02FqnXXmxh2wH9O
1agtxy9UxWnTk3XNyVzn/Gg1hWg6bjYeA3Jv0l/yvKPV7MBXIKC5OLsTi82VJOMk
0h74+fxiUcZocz+GqtvnG7PItZNTqiLl0KBlIvQdYcteXiMIvUNcwx8iNuMqEj1q
p+jMXTWWuI/jDNkShwerwOwV8ab52QIDAQABo3sweTAJBgNVHRMEAjAAMCwGCWCG
SAGG+EIBDQQfFh1PcGVuU1NMIEdlbmVyYXRlZCBDZXJ0aWZpY2F0ZTAdBgNVHQ4E
FgQUbeW3M5P4aDeMW23r4X3Im5bFHEwwHwYDVR0jBBgwFoAUaprX2yIibxCNc+7n
9+JxYVwE3xQwDQYJKoZIhvcNAQELBQADggEBAIcRQ3vfKsz+PXYNTwL9FSQ+CeRM
VbLm30gmnvRE3SakkSV2fA4v2PmwOtFqlwEIC3B5FxNOrelSkSvcLg5RvpH/XlP8
7kZkLyQwAj2xyiDQjH2lmxoCr7lxDehxIcyh4DLHKqrmemceoKcj/XvO8Ds/rRJU
J4j/QluWS69iSnjWHB1/pe54B6HmVGcjisYuoPts97PBuh+fD/dkM+rSTWN2dN7S
Lnuk+yvnbsH2q7pi6DC7sJN3bv1lr4Xfc4fu9EWp/F3I6iYIGE5QrMTo7JWxxzrm
eQgbZnFLg64YvccRoXk+BNaHEERZz4tMYHiARZafYxLCbckP/ns2q+ClG9M=
-----END CERTIFICATE-----
